target datalayout = "e-m:e-p270:32:32-p271:32:32-p272:64:64-i64:64-i128:128-f80:128-n8:16:32:64-S128"
target triple = "x86_64-pc-linux-gnu"

@.str = private unnamed_addr constant [6 x i8] c"#BSUB\00", align 1
@.str.1 = private unnamed_addr constant [5 x i8] c"#PBS\00", align 1
@.str.2 = private unnamed_addr constant [8 x i8] c"xlate.c\00", align 1
@__func__.xlate_batch_script = private unnamed_addr constant [19 x i8] c"xlate_batch_script\00", align 1
@.str.3 = private unnamed_addr constant [7 x i8] c"sbatch\00", align 1
@.str.4 = private unnamed_addr constant [31 x i8] c"Found in script, argument \22%s\22\00", align 1
@.str.5 = private unnamed_addr constant [5 x i8] c"-cwd\00", align 1
@.str.6 = private unnamed_addr constant [3 x i8] c"-c\00", align 1

; Function Attrs: nounwind uwtable
define dso_local zeroext i1 @xlate_batch_script(ptr noundef %0, ptr noundef %1, i32 noundef %2, i32 noundef %3) #0 {
  %5 = alloca i1, align 1
  %6 = alloca ptr, align 8
  %7 = alloca ptr, align 8
  %8 = alloca i32, align 4
  %9 = alloca i32, align 4
  %10 = alloca ptr, align 8
  %11 = alloca ptr, align 8
  %12 = alloca i32, align 4
  %13 = alloca i32, align 4
  %14 = alloca ptr, align 8
  %15 = alloca ptr, align 8
  %16 = alloca ptr, align 8
  %17 = alloca ptr, align 8
  %18 = alloca ptr, align 8
  %19 = alloca i32, align 4
  %20 = alloca i32, align 4
  %21 = alloca i32, align 4
  %22 = alloca i32, align 4
  %23 = alloca i8, align 1
  %24 = alloca i32, align 4
  store ptr %0, ptr %6, align 8
  store ptr %1, ptr %7, align 8
  store i32 %2, ptr %8, align 4
  store i32 %3, ptr %9, align 4
  call void @llvm.lifetime.start.p0(i64 8, ptr %10) #8
  call void @llvm.lifetime.start.p0(i64 8, ptr %11) #8
  store ptr null, ptr %11, align 8
  call void @llvm.lifetime.start.p0(i64 4, ptr %12) #8
  call void @llvm.lifetime.start.p0(i64 4, ptr %13) #8
  call void @llvm.lifetime.start.p0(i64 8, ptr %14) #8
  call void @llvm.lifetime.start.p0(i64 8, ptr %15) #8
  store ptr null, ptr %15, align 8
  call void @llvm.lifetime.start.p0(i64 8, ptr %16) #8
  call void @llvm.lifetime.start.p0(i64 8, ptr %17) #8
  call void @llvm.lifetime.start.p0(i64 8, ptr %18) #8
  call void @llvm.lifetime.start.p0(i64 4, ptr %19) #8
  store i32 0, ptr %19, align 4
  call void @llvm.lifetime.start.p0(i64 4, ptr %20) #8
  store i32 0, ptr %20, align 4
  call void @llvm.lifetime.start.p0(i64 4, ptr %21) #8
  store i32 0, ptr %21, align 4
  call void @llvm.lifetime.start.p0(i64 4, ptr %22) #8
  call void @llvm.lifetime.start.p0(i64 1, ptr %23) #8
  store i8 0, ptr %23, align 1
  %25 = load i32, ptr %9, align 4
  switch i32 %25, label %28 [
    i32 1, label %26
    i32 2, label %27
  ]

26:                                               ; preds = %4
  store ptr @.str, ptr %10, align 8
  store ptr @_set_bsub_options, ptr %11, align 8
  br label %29

27:                                               ; preds = %4
  store ptr @.str.1, ptr %10, align 8
  store ptr @_set_pbs_options, ptr %11, align 8
  br label %29

28:                                               ; preds = %4
  store i1 false, ptr %5, align 1
  store i32 1, ptr %24, align 4
  br label %144

29:                                               ; preds = %27, %26
  %30 = load ptr, ptr %10, align 8
  %31 = call i64 @strlen(ptr noundef %30) #9
  %32 = trunc i64 %31 to i32
  store i32 %32, ptr %12, align 4
  store i32 1, ptr %13, align 4
  %33 = call ptr @slurm_xcalloc(i64 noundef 1, i64 noundef 8, i1 noundef zeroext true, i1 noundef zeroext false, ptr noundef @.str.2, i32 noundef 113, ptr noundef @__func__.xlate_batch_script)
  store ptr %33, ptr %14, align 8
  %34 = load ptr, ptr %14, align 8
  %35 = getelementptr inbounds ptr, ptr %34, i64 0
  store ptr @.str.3, ptr %35, align 8
  br label %36

36:                                               ; preds = %117, %63, %29
  %37 = load ptr, ptr %7, align 8
  %38 = load i32, ptr %8, align 4
  %39 = call ptr @next_line(ptr noundef %37, i32 noundef %38, ptr noundef %15)
  store ptr %39, ptr %16, align 8
  %40 = icmp ne ptr %39, null
  br i1 %40, label %41, label %118

41:                                               ; preds = %36
  %42 = load i32, ptr %20, align 4
  %43 = add nsw i32 %42, 1
  store i32 %43, ptr %20, align 4
  %44 = load ptr, ptr %16, align 8
  %45 = load ptr, ptr %10, align 8
  %46 = load i32, ptr %12, align 4
  %47 = sext i32 %46 to i64
  %48 = call i32 @xstrncmp(ptr noundef %44, ptr noundef %45, i64 noundef %47)
  %49 = icmp ne i32 %48, 0
  br i1 %49, label %50, label %64

50:                                               ; preds = %41
  %51 = load ptr, ptr %16, align 8
  %52 = getelementptr inbounds i8, ptr %51, i64 0
  %53 = load i8, ptr %52, align 1
  %54 = sext i8 %53 to i32
  %55 = icmp ne i32 %54, 35
  br i1 %55, label %56, label %59

56:                                               ; preds = %50
  %57 = load i32, ptr %21, align 4
  %58 = add nsw i32 %57, 1
  store i32 %58, ptr %21, align 4
  br label %59

59:                                               ; preds = %56, %50
  call void @slurm_xfree(ptr noundef %16)
  %60 = load i32, ptr %21, align 4
  %61 = icmp sgt i32 %60, 100
  br i1 %61, label %62, label %63

62:                                               ; preds = %59
  br label %118

63:                                               ; preds = %59
  br label %36, !llvm.loop !8

64:                                               ; preds = %41
  store i8 1, ptr %23, align 1
  %65 = load ptr, ptr %16, align 8
  %66 = load i32, ptr %12, align 4
  %67 = sext i32 %66 to i64
  %68 = getelementptr inbounds i8, ptr %65, i64 %67
  store ptr %68, ptr %18, align 8
  br label %69

69:                                               ; preds = %106, %64
  %70 = load ptr, ptr %6, align 8
  %71 = load i32, ptr %20, align 4
  %72 = load ptr, ptr %18, align 8
  %73 = call ptr @get_argument(ptr noundef %70, i32 noundef %71, ptr noundef %72, ptr noundef %19)
  store ptr %73, ptr %17, align 8
  %74 = icmp ne ptr %73, null
  br i1 %74, label %75, label %117

75:                                               ; preds = %69
  br label %76

76:                                               ; preds = %75
  br label %77

77:                                               ; preds = %76
  %78 = call i32 @get_log_level()
  %79 = icmp sge i32 %78, 6
  br i1 %79, label %80, label %82

80:                                               ; preds = %77
  %81 = load ptr, ptr %17, align 8
  call void (i32, ptr, ...) @log_var(i32 noundef 6, ptr noundef @.str.4, ptr noundef %81)
  br label %82

82:                                               ; preds = %80, %77
  br label %83

83:                                               ; preds = %82
  br label %84

84:                                               ; preds = %83
  br label %85

85:                                               ; preds = %84
  br label %86

86:                                               ; preds = %85
  %87 = load i32, ptr %13, align 4
  %88 = add nsw i32 %87, 1
  store i32 %88, ptr %13, align 4
  %89 = load i32, ptr %13, align 4
  %90 = sext i32 %89 to i64
  %91 = mul i64 8, %90
  %92 = call ptr @slurm_xrecalloc(ptr noundef %14, i64 noundef 1, i64 noundef %91, i1 noundef zeroext true, i1 noundef zeroext false, ptr noundef @.str.2, i32 noundef 134, ptr noundef @__func__.xlate_batch_script)
  %93 = load i32, ptr %9, align 4
  %94 = icmp eq i32 %93, 1
  br i1 %94, label %95, label %106

95:                                               ; preds = %86
  %96 = load i32, ptr %13, align 4
  %97 = srem i32 %96, 2
  %98 = icmp ne i32 %97, 0
  br i1 %98, label %106, label %99

99:                                               ; preds = %95
  %100 = load ptr, ptr %17, align 8
  %101 = call i32 @xstrcmp(ptr noundef @.str.5, ptr noundef %100)
  %102 = icmp ne i32 %101, 0
  br i1 %102, label %105, label %103

103:                                              ; preds = %99
  call void @slurm_xfree(ptr noundef %17)
  %104 = call ptr @xstrdup(ptr noundef @.str.6)
  store ptr %104, ptr %17, align 8
  br label %105

105:                                              ; preds = %103, %99
  br label %106

106:                                              ; preds = %105, %95, %86
  %107 = load ptr, ptr %17, align 8
  %108 = load ptr, ptr %14, align 8
  %109 = load i32, ptr %13, align 4
  %110 = sub nsw i32 %109, 1
  %111 = sext i32 %110 to i64
  %112 = getelementptr inbounds ptr, ptr %108, i64 %111
  store ptr %107, ptr %112, align 8
  %113 = load i32, ptr %19, align 4
  %114 = load ptr, ptr %18, align 8
  %115 = sext i32 %113 to i64
  %116 = getelementptr inbounds i8, ptr %114, i64 %115
  store ptr %116, ptr %18, align 8
  br label %69, !llvm.loop !11

117:                                              ; preds = %69
  call void @slurm_xfree(ptr noundef %16)
  br label %36, !llvm.loop !8

118:                                              ; preds = %62, %36
  %119 = load i32, ptr %13, align 4
  %120 = icmp sgt i32 %119, 0
  br i1 %120, label %121, label %128

121:                                              ; preds = %118
  %122 = load ptr, ptr %11, align 8
  %123 = icmp ne ptr %122, null
  br i1 %123, label %124, label %128

124:                                              ; preds = %121
  %125 = load ptr, ptr %11, align 8
  %126 = load i32, ptr %13, align 4
  %127 = load ptr, ptr %14, align 8
  call void %125(i32 noundef %126, ptr noundef %127)
  br label %128

128:                                              ; preds = %124, %121, %118
  store i32 1, ptr %22, align 4
  br label %129

129:                                              ; preds = %138, %128
  %130 = load i32, ptr %22, align 4
  %131 = load i32, ptr %13, align 4
  %132 = icmp slt i32 %130, %131
  br i1 %132, label %133, label %141

133:                                              ; preds = %129
  %134 = load ptr, ptr %14, align 8
  %135 = load i32, ptr %22, align 4
  %136 = sext i32 %135 to i64
  %137 = getelementptr inbounds ptr, ptr %134, i64 %136
  call void @slurm_xfree(ptr noundef %137)
  br label %138

138:                                              ; preds = %133
  %139 = load i32, ptr %22, align 4
  %140 = add nsw i32 %139, 1
  store i32 %140, ptr %22, align 4
  br label %129, !llvm.loop !12

141:                                              ; preds = %129
  call void @slurm_xfree(ptr noundef %14)
  %142 = load i8, ptr %23, align 1, !range !13, !noundef !14
  %143 = trunc i8 %142 to i1
  store i1 %143, ptr %5, align 1
  store i32 1, ptr %24, align 4
  br label %144

144:                                              ; preds = %141, %28
  call void @llvm.lifetime.end.p0(i64 1, ptr %23) #8
  call void @llvm.lifetime.end.p0(i64 4, ptr %22) #8
  call void @llvm.lifetime.end.p0(i64 4, ptr %21) #8
  call void @llvm.lifetime.end.p0(i64 4, ptr %20) #8
  call void @llvm.lifetime.end.p0(i64 4, ptr %19) #8
  call void @llvm.lifetime.end.p0(i64 8, ptr %18) #8
  call void @llvm.lifetime.end.p0(i64 8, ptr %17) #8
  call void @llvm.lifetime.end.p0(i64 8, ptr %16) #8
  call void @llvm.lifetime.end.p0(i64 8, ptr %15) #8
  call void @llvm.lifetime.end.p0(i64 8, ptr %14) #8
  call void @llvm.lifetime.end.p0(i64 4, ptr %13) #8
  call void @llvm.lifetime.end.p0(i64 4, ptr %12) #8
  call void @llvm.lifetime.end.p0(i64 8, ptr %11) #8
  call void @llvm.lifetime.end.p0(i64 8, ptr %10) #8
  %145 = load i1, ptr %5, align 1
  ret i1 %145
}