; Function Attrs: nounwind uwtable
define dso_local noundef zeroext i1 @xlate_batch_script(ptr noundef %0, ptr noundef %1, i32 noundef %2, i32 noundef %3) local_unnamed_addr #0 {
  %5 = alloca ptr, align 8
  %6 = alloca ptr, align 8
  %7 = alloca ptr, align 8
  %8 = alloca ptr, align 8
  %9 = alloca i32, align 4
  call void @llvm.lifetime.start.p0(i64 8, ptr nonnull %5) #10
  call void @llvm.lifetime.start.p0(i64 8, ptr nonnull %6) #10
  store ptr null, ptr %6, align 8
  call void @llvm.lifetime.start.p0(i64 8, ptr nonnull %7) #10
  call void @llvm.lifetime.start.p0(i64 8, ptr nonnull %8) #10
  call void @llvm.lifetime.start.p0(i64 4, ptr nonnull %9) #10
  store i32 0, ptr %9, align 4
  switch i32 %3, label %57 [
    i32 1, label %11
    i32 2, label %10
  ]

10:                                               ; preds = %4
  br label %11

11:                                               ; preds = %4, %10
  %.037 = phi ptr [ @.str.1, %10 ], [ @.str, %4 ]
  %.036 = phi ptr [ @_set_pbs_options, %10 ], [ @_set_bsub_options, %4 ]
  %12 = tail call i64 @strlen(ptr noundef nonnull dereferenceable(1) %.037) #11
  %13 = tail call ptr @slurm_xcalloc(i64 noundef 1, i64 noundef 8, i1 noundef zeroext true, i1 noundef zeroext false, ptr noundef nonnull @.str.2, i32 noundef 113, ptr noundef nonnull @__func__.xlate_batch_script) #10
  store ptr %13, ptr %5, align 8
  store ptr @.str.3, ptr %13, align 8
  %sext = shl i64 %12, 32
  %14 = ashr exact i64 %sext, 32
  %15 = icmp ne i32 %3, 1
  br label %.outer

.outer:                                           ; preds = %._crit_edge, %11
  %.033.ph = phi i32 [ %.134.lcssa, %._crit_edge ], [ 1, %11 ]
  %.031.ph = phi i32 [ %19, %._crit_edge ], [ 0, %11 ]
  %.030.ph = phi i32 [ %.030, %._crit_edge ], [ 0, %11 ]
  %.0.ph = phi i1 [ true, %._crit_edge ], [ false, %11 ]
  br label %16

16:                                               ; preds = %.outer, %22
  %.031 = phi i32 [ %19, %22 ], [ %.031.ph, %.outer ]
  %.030 = phi i32 [ %spec.select, %22 ], [ %.030.ph, %.outer ]
  %17 = call ptr @next_line(ptr noundef %1, i32 noundef %2, ptr noundef nonnull %6) #10
  store ptr %17, ptr %7, align 8
  %.not = icmp eq ptr %17, null
  br i1 %.not, label %51, label %18

18:                                               ; preds = %16
  %19 = add nsw i32 %.031, 1
  %20 = call i32 @xstrncmp(ptr noundef nonnull %17, ptr noundef nonnull %.037, i64 noundef %14) #10
  %.not39 = icmp eq i32 %20, 0
  %21 = load ptr, ptr %7, align 8
  br i1 %.not39, label %26, label %22

22:                                               ; preds = %18
  %23 = load i8, ptr %21, align 1
  %.not43 = icmp ne i8 %23, 35
  %24 = zext i1 %.not43 to i32
  %spec.select = add nsw i32 %.030, %24
  call void @slurm_xfree(ptr noundef nonnull %7) #10
  %25 = icmp sgt i32 %spec.select, 100
  br i1 %25, label %51, label %16, !llvm.loop !8

26:                                               ; preds = %18
  %27 = getelementptr inbounds i8, ptr %21, i64 %14
  %28 = call ptr @get_argument(ptr noundef %0, i32 noundef %19, ptr noundef %27, ptr noundef nonnull %9) #10
  store ptr %28, ptr %8, align 8
  %.not4046 = icmp eq ptr %28, null
  br i1 %.not4046, label %._crit_edge, label %.lr.ph.preheader

.lr.ph.preheader:                                 ; preds = %26
  %29 = sext i32 %.033.ph to i64
  br label %.lr.ph

.lr.ph:                                           ; preds = %.lr.ph.preheader, %42
  %indvars.iv = phi i64 [ %29, %.lr.ph.preheader ], [ %indvars.iv.next, %42 ]
  %.03248 = phi ptr [ %27, %.lr.ph.preheader ], [ %48, %42 ]
  %30 = call i32 @get_log_level() #10
  %31 = icmp sgt i32 %30, 5
  br i1 %31, label %32, label %34

32:                                               ; preds = %.lr.ph
  %33 = load ptr, ptr %8, align 8
  call void (i32, ptr, ...) @log_var(i32 noundef 6, ptr noundef nonnull @.str.4, ptr noundef %33) #10
  br label %34

34:                                               ; preds = %32, %.lr.ph
  %indvars.iv.next = add nsw i64 %indvars.iv, 1
  %35 = shl nsw i64 %indvars.iv.next, 3
  %36 = call ptr @slurm_xrecalloc(ptr noundef nonnull %5, i64 noundef 1, i64 noundef %35, i1 noundef zeroext true, i1 noundef zeroext false, ptr noundef nonnull @.str.2, i32 noundef 134, ptr noundef nonnull @__func__.xlate_batch_script) #10
  %37 = and i64 %indvars.iv, 1
  %.not41.not = icmp eq i64 %37, 0
  %or.cond = select i1 %15, i1 true, i1 %.not41.not
  %.pre61 = load ptr, ptr %8, align 8
  br i1 %or.cond, label %42, label %38

38:                                               ; preds = %34
  %39 = call i32 @xstrcmp(ptr noundef nonnull @.str.5, ptr noundef %.pre61) #10
  %.not42 = icmp eq i32 %39, 0
  br i1 %.not42, label %40, label %._crit_edge60

._crit_edge60:                                    ; preds = %38
  %.pre = load ptr, ptr %8, align 8
  br label %42

40:                                               ; preds = %38
  call void @slurm_xfree(ptr noundef nonnull %8) #10
  %41 = call ptr @xstrdup(ptr noundef nonnull @.str.6) #10
  store ptr %41, ptr %8, align 8
  br label %42

42:                                               ; preds = %._crit_edge60, %40, %34
  %43 = phi ptr [ %.pre, %._crit_edge60 ], [ %41, %40 ], [ %.pre61, %34 ]
  %44 = load ptr, ptr %5, align 8
  %45 = getelementptr inbounds ptr, ptr %44, i64 %indvars.iv
  store ptr %43, ptr %45, align 8
  %46 = load i32, ptr %9, align 4
  %47 = sext i32 %46 to i64
  %48 = getelementptr inbounds i8, ptr %.03248, i64 %47
  %49 = call ptr @get_argument(ptr noundef %0, i32 noundef %19, ptr noundef %48, ptr noundef nonnull %9) #10
  store ptr %49, ptr %8, align 8
  %.not40 = icmp eq ptr %49, null
  br i1 %.not40, label %._crit_edge.loopexit, label %.lr.ph, !llvm.loop !11

._crit_edge.loopexit:                             ; preds = %42
  %50 = trunc nsw i64 %indvars.iv.next to i32
  br label %._crit_edge

._crit_edge:                                      ; preds = %._crit_edge.loopexit, %26
  %.134.lcssa = phi i32 [ %.033.ph, %26 ], [ %50, %._crit_edge.loopexit ]
  call void @slurm_xfree(ptr noundef nonnull %7) #10
  br label %.outer, !llvm.loop !8

51:                                               ; preds = %22, %16
  %52 = icmp sgt i32 %.033.ph, 0
  br i1 %52, label %53, label %._crit_edge52

53:                                               ; preds = %51
  %54 = load ptr, ptr %5, align 8
  call void %.036(i32 noundef %.033.ph, ptr noundef %54) #10, !callees !12
  %.not63 = icmp eq i32 %.033.ph, 1
  br i1 %.not63, label %._crit_edge52, label %.lr.ph51.preheader

.lr.ph51.preheader:                               ; preds = %53
  %wide.trip.count = zext nneg i32 %.033.ph to i64
  br label %.lr.ph51

.lr.ph51:                                         ; preds = %.lr.ph51.preheader, %.lr.ph51
  %indvars.iv56 = phi i64 [ 1, %.lr.ph51.preheader ], [ %indvars.iv.next57, %.lr.ph51 ]
  %55 = load ptr, ptr %5, align 8
  %56 = getelementptr inbounds nuw ptr, ptr %55, i64 %indvars.iv56
  call void @slurm_xfree(ptr noundef nonnull %56) #10
  %indvars.iv.next57 = add nuw nsw i64 %indvars.iv56, 1
  %exitcond.not = icmp eq i64 %indvars.iv.next57, %wide.trip.count
  br i1 %exitcond.not, label %._crit_edge52, label %.lr.ph51, !llvm.loop !13

._crit_edge52:                                    ; preds = %.lr.ph51, %51, %53
  call void @slurm_xfree(ptr noundef nonnull %5) #10
  br label %57

57:                                               ; preds = %4, %._crit_edge52
  %.035 = phi i1 [ %.0.ph, %._crit_edge52 ], [ false, %4 ]
  call void @llvm.lifetime.end.p0(i64 4, ptr nonnull %9) #10
  call void @llvm.lifetime.end.p0(i64 8, ptr nonnull %8) #10
  call void @llvm.lifetime.end.p0(i64 8, ptr nonnull %7) #10
  call void @llvm.lifetime.end.p0(i64 8, ptr nonnull %6) #10
  call void @llvm.lifetime.end.p0(i64 8, ptr nonnull %5) #10
  ret i1 %.035
}